; Function Attrs: mustprogress uwtable
define noalias noundef nonnull ptr @lean_st_ref_set(ptr noundef captures(none) %0, ptr noundef %1, ptr noundef readnone captures(none) %2) local_unnamed_addr #0 {
  %.val = load i32, ptr %0, align 4, !tbaa !7
  %spec.select.i = icmp slt i32 %.val, 1
  br i1 %spec.select.i, label %4, label %19

4:                                                ; preds = %3
  tail call void @lean_mark_mt(ptr noundef %1)
  %5 = getelementptr inbounds nuw i8, ptr %0, i64 8
  %6 = ptrtoint ptr %1 to i64
  %7 = atomicrmw xchg ptr %5, i64 %6 seq_cst, align 8
  %.0.i.i = inttoptr i64 %7 to ptr
  %.not13 = icmp ne i64 %7, 0
  %8 = and i64 %7, 1
  %.not.i = icmp eq i64 %8, 0
  %or.cond = and i1 %.not13, %.not.i
  br i1 %or.cond, label %9, label %_ZN4lean3decEP11lean_object.exit

9:                                                ; preds = %4
  %10 = load i32, ptr %.0.i.i, align 4, !tbaa !7
  %11 = icmp sgt i32 %10, 1
  br i1 %11, label %12, label %14, !prof !10

12:                                               ; preds = %9
  %13 = add nsw i32 %10, -1
  store i32 %13, ptr %.0.i.i, align 4, !tbaa !7
  br label %_ZN4lean3decEP11lean_object.exit

14:                                               ; preds = %9
  %.not.i.i = icmp eq i32 %10, 0
  br i1 %.not.i.i, label %_ZN4lean3decEP11lean_object.exit, label %15

15:                                               ; preds = %14
  tail call void @lean_dec_ref_cold(ptr noundef nonnull %.0.i.i)
  br label %_ZN4lean3decEP11lean_object.exit

_ZN4lean3decEP11lean_object.exit:                 ; preds = %15, %14, %12, %4
  tail call void @lean_inc_heartbeat()
  %16 = tail call noalias ptr @mi_malloc_small(i64 noundef 24) #27
  %17 = icmp eq ptr %16, null
  br i1 %17, label %18, label %_ZN4lean15io_result_mk_okEP11lean_object.exit

18:                                               ; preds = %_ZN4lean3decEP11lean_object.exit
  tail call void @lean_internal_panic_out_of_memory() #28
  unreachable

19:                                               ; preds = %3
  %20 = getelementptr inbounds nuw i8, ptr %0, i64 8
  %21 = load ptr, ptr %20, align 8, !tbaa !105
  %.not = icmp ne ptr %21, null
  %22 = ptrtoint ptr %21 to i64
  %23 = and i64 %22, 1
  %.not.i14 = icmp eq i64 %23, 0
  %or.cond19 = and i1 %.not, %.not.i14
  br i1 %or.cond19, label %24, label %_ZN4lean3decEP11lean_object.exit16

24:                                               ; preds = %19
  %25 = load i32, ptr %21, align 4, !tbaa !7
  %26 = icmp sgt i32 %25, 1
  br i1 %26, label %27, label %29, !prof !10

27:                                               ; preds = %24
  %28 = add nsw i32 %25, -1
  store i32 %28, ptr %21, align 4, !tbaa !7
  br label %_ZN4lean3decEP11lean_object.exit16

29:                                               ; preds = %24
  %.not.i.i15 = icmp eq i32 %25, 0
  br i1 %.not.i.i15, label %_ZN4lean3decEP11lean_object.exit16, label %30

30:                                               ; preds = %29
  tail call void @lean_dec_ref_cold(ptr noundef nonnull %21)
  br label %_ZN4lean3decEP11lean_object.exit16

_ZN4lean3decEP11lean_object.exit16:               ; preds = %30, %29, %27, %19
  store ptr %1, ptr %20, align 8, !tbaa !105
  tail call void @lean_inc_heartbeat()
  %31 = tail call noalias ptr @mi_malloc_small(i64 noundef 24) #27
  %32 = icmp eq ptr %31, null
  br i1 %32, label %33, label %_ZN4lean15io_result_mk_okEP11lean_object.exit

33:                                               ; preds = %_ZN4lean3decEP11lean_object.exit16
  tail call void @lean_internal_panic_out_of_memory() #28
  unreachable

_ZN4lean15io_result_mk_okEP11lean_object.exit:    ; preds = %_ZN4lean3decEP11lean_object.exit16, %_ZN4lean3decEP11lean_object.exit
  %.sink23 = phi ptr [ %16, %_ZN4lean3decEP11lean_object.exit ], [ %31, %_ZN4lean3decEP11lean_object.exit16 ]
  %34 = getelementptr inbounds nuw i8, ptr %.sink23, i64 4
  store i32 1, ptr %.sink23, align 4, !tbaa !7
  store i32 131096, ptr %34, align 4
  %35 = getelementptr inbounds nuw i8, ptr %.sink23, i64 8
  store ptr inttoptr (i64 1 to ptr), ptr %35, align 8, !tbaa !3
  %36 = getelementptr inbounds nuw i8, ptr %.sink23, i64 16
  store ptr inttoptr (i64 1 to ptr), ptr %36, align 8, !tbaa !3
  ret ptr %.sink23
}